target datalayout = "e-m:e-p270:32:32-p271:32:32-p272:64:64-i64:64-i128:128-f80:128-n8:16:32:64-S128"
target triple = "x86_64-pc-linux-gnu"

%struct.Vec_Int_t_ = type { i32, i32, ptr }
%struct.Gia_Obj_t_ = type <{ i64, i32 }>
%struct.Gia_Man_t_ = type { ptr, ptr, i32, i32, i32, i32, ptr, ptr, i32, i32, i32, ptr, ptr, %struct.Vec_Int_t_, %struct.Vec_Int_t_, i32, i32, i32, %struct.Vec_Int_t_, ptr, ptr, ptr, i32, i32, i32, i32, ptr, ptr, ptr, ptr, ptr, i32, i32, ptr, i32, ptr, ptr, ptr, ptr, ptr, ptr, ptr, ptr, ptr, ptr, ptr, ptr, ptr, ptr, ptr, ptr, ptr, ptr, %struct.Vec_Int_t_, %struct.Vec_Int_t_, ptr, ptr, ptr, ptr, ptr, ptr, ptr, ptr, ptr, ptr, ptr, ptr, ptr, ptr, ptr, ptr, ptr, ptr, ptr, ptr, ptr, i32, float, float, ptr, ptr, i32, ptr, ptr, ptr, ptr, ptr, ptr, ptr, ptr, ptr, ptr, ptr, ptr, ptr, ptr, ptr, i64, i64, ptr, ptr, i32, i32, i32, i32, i32, i32, i32, i32, i32, i32, i32, i32, ptr, ptr, ptr, ptr, ptr, ptr, ptr, ptr, i32, i32, i32, ptr, i32, i32, ptr, ptr, ptr, ptr, ptr, ptr, i32, i32, ptr, %struct.Vec_Int_t_, %struct.Vec_Int_t_, %struct.Vec_Int_t_, ptr, ptr, ptr, i32, i32, i32, i32, ptr, ptr, ptr, ptr, ptr }

@.str = private unnamed_addr constant [17 x i8] c"Cutset is not 0\0A\00", align 1
@.str.1 = private unnamed_addr constant [13 x i8] c"CutMax = %d\0A\00", align 1

; Function Attrs: inlinehint nounwind uwtable
define internal ptr @Gia_ObjFanin1(ptr noundef %0) #1 {
  %2 = alloca ptr, align 8
  store ptr %0, ptr %2, align 8, !tbaa !8
  %3 = load ptr, ptr %2, align 8, !tbaa !8
  %4 = load ptr, ptr %2, align 8, !tbaa !8
  %5 = load i64, ptr %4, align 4
  %6 = lshr i64 %5, 32
  %7 = and i64 %6, 536870911
  %8 = trunc i64 %7 to i32
  %9 = sext i32 %8 to i64
  %10 = sub i64 0, %9
  %11 = getelementptr inbounds %struct.Gia_Obj_t_, ptr %3, i64 %10
  ret ptr %11
}

; Function Attrs: inlinehint nounwind uwtable
define internal ptr @Gia_ObjFanin0(ptr noundef %0) #1 {
  %2 = alloca ptr, align 8
  store ptr %0, ptr %2, align 8, !tbaa !8
  %3 = load ptr, ptr %2, align 8, !tbaa !8
  %4 = load ptr, ptr %2, align 8, !tbaa !8
  %5 = load i64, ptr %4, align 4
  %6 = and i64 %5, 536870911
  %7 = trunc i64 %6 to i32
  %8 = sext i32 %7 to i64
  %9 = sub i64 0, %8
  %10 = getelementptr inbounds %struct.Gia_Obj_t_, ptr %3, i64 %9
  ret ptr %10
}

; Function Attrs: inlinehint nounwind uwtable
define internal i32 @Gia_ObjIsAnd(ptr noundef %0) #1 {
  %2 = alloca ptr, align 8
  store ptr %0, ptr %2, align 8, !tbaa !8
  %3 = load ptr, ptr %2, align 8, !tbaa !8
  %4 = load i64, ptr %3, align 4
  %5 = lshr i64 %4, 31
  %6 = and i64 %5, 1
  %7 = trunc i64 %6 to i32
  %8 = icmp ne i32 %7, 0
  br i1 %8, label %15, label %9

9:                                                ; preds = %1
  %10 = load ptr, ptr %2, align 8, !tbaa !8
  %11 = load i64, ptr %10, align 4
  %12 = and i64 %11, 536870911
  %13 = trunc i64 %12 to i32
  %14 = icmp ne i32 %13, 536870911
  br label %15

15:                                               ; preds = %9, %1
  %16 = phi i1 [ false, %1 ], [ %14, %9 ]
  %17 = zext i1 %16 to i32
  ret i32 %17
}

; Function Attrs: inlinehint nounwind uwtable
define internal ptr @Gia_ManObj(ptr noundef %0, i32 noundef %1) #1 {
  %3 = alloca ptr, align 8
  %4 = alloca i32, align 4
  store ptr %0, ptr %3, align 8, !tbaa !28
  store i32 %1, ptr %4, align 4, !tbaa !26
  %5 = load ptr, ptr %3, align 8, !tbaa !28
  %6 = getelementptr inbounds nuw %struct.Gia_Man_t_, ptr %5, i32 0, i32 6
  %7 = load ptr, ptr %6, align 8, !tbaa !29
  %8 = load i32, ptr %4, align 4, !tbaa !26
  %9 = sext i32 %8 to i64
  %10 = getelementptr inbounds %struct.Gia_Obj_t_, ptr %7, i64 %9
  ret ptr %10
}

; Function Attrs: nounwind uwtable
define i32 @Lf_ManComputeCrossCut(ptr noundef %0) #0 {
  %2 = alloca ptr, align 8
  %3 = alloca ptr, align 8
  %4 = alloca i32, align 4
  %5 = alloca i32, align 4
  %6 = alloca i32, align 4
  store ptr %0, ptr %2, align 8, !tbaa !28
  call void @llvm.lifetime.start.p0(i64 8, ptr %3) #14
  call void @llvm.lifetime.start.p0(i64 4, ptr %4) #14
  call void @llvm.lifetime.start.p0(i64 4, ptr %5) #14
  store i32 0, ptr %5, align 4, !tbaa !26
  call void @llvm.lifetime.start.p0(i64 4, ptr %6) #14
  store i32 0, ptr %6, align 4, !tbaa !26
  store i32 0, ptr %4, align 4, !tbaa !26
  br label %7

7:                                                ; preds = %23, %1
  %8 = load i32, ptr %4, align 4, !tbaa !26
  %9 = load ptr, ptr %2, align 8, !tbaa !28
  %10 = getelementptr inbounds nuw %struct.Gia_Man_t_, ptr %9, i32 0, i32 4
  %11 = load i32, ptr %10, align 8, !tbaa !45
  %12 = icmp slt i32 %8, %11
  br i1 %12, label %13, label %18

13:                                               ; preds = %7
  %14 = load ptr, ptr %2, align 8, !tbaa !28
  %15 = load i32, ptr %4, align 4, !tbaa !26
  %16 = call ptr @Gia_ManObj(ptr noundef %14, i32 noundef %15)
  store ptr %16, ptr %3, align 8, !tbaa !8
  %17 = icmp ne ptr %16, null
  br label %18

18:                                               ; preds = %13, %7
  %19 = phi i1 [ false, %7 ], [ %17, %13 ]
  br i1 %19, label %20, label %26

20:                                               ; preds = %18
  %21 = load ptr, ptr %3, align 8, !tbaa !8
  %22 = getelementptr inbounds nuw %struct.Gia_Obj_t_, ptr %21, i32 0, i32 1
  store i32 0, ptr %22, align 4, !tbaa !46
  br label %23

23:                                               ; preds = %20
  %24 = load i32, ptr %4, align 4, !tbaa !26
  %25 = add nsw i32 %24, 1
  store i32 %25, ptr %4, align 4, !tbaa !26
  br label %7, !llvm.loop !48

26:                                               ; preds = %18
  store i32 0, ptr %4, align 4, !tbaa !26
  br label %27

27:                                               ; preds = %69, %26
  %28 = load i32, ptr %4, align 4, !tbaa !26
  %29 = load ptr, ptr %2, align 8, !tbaa !28
  %30 = getelementptr inbounds nuw %struct.Gia_Man_t_, ptr %29, i32 0, i32 4
  %31 = load i32, ptr %30, align 8, !tbaa !45
  %32 = icmp slt i32 %28, %31
  br i1 %32, label %33, label %38

33:                                               ; preds = %27
  %34 = load ptr, ptr %2, align 8, !tbaa !28
  %35 = load i32, ptr %4, align 4, !tbaa !26
  %36 = call ptr @Gia_ManObj(ptr noundef %34, i32 noundef %35)
  store ptr %36, ptr %3, align 8, !tbaa !8
  %37 = icmp ne ptr %36, null
  br label %38

38:                                               ; preds = %33, %27
  %39 = phi i1 [ false, %27 ], [ %37, %33 ]
  br i1 %39, label %40, label %72

40:                                               ; preds = %38
  %41 = load ptr, ptr %3, align 8, !tbaa !8
  %42 = call i32 @Gia_ObjIsAnd(ptr noundef %41)
  %43 = icmp ne i32 %42, 0
  br i1 %43, label %45, label %44

44:                                               ; preds = %40
  br label %68

45:                                               ; preds = %40
  %46 = load ptr, ptr %3, align 8, !tbaa !8
  %47 = call ptr @Gia_ObjFanin0(ptr noundef %46)
  %48 = call i32 @Gia_ObjIsAnd(ptr noundef %47)
  %49 = icmp ne i32 %48, 0
  br i1 %49, label %50, label %56

50:                                               ; preds = %45
  %51 = load ptr, ptr %3, align 8, !tbaa !8
  %52 = call ptr @Gia_ObjFanin0(ptr noundef %51)
  %53 = getelementptr inbounds nuw %struct.Gia_Obj_t_, ptr %52, i32 0, i32 1
  %54 = load i32, ptr %53, align 4, !tbaa !46
  %55 = add i32 %54, 1
  store i32 %55, ptr %53, align 4, !tbaa !46
  br label %56

56:                                               ; preds = %50, %45
  %57 = load ptr, ptr %3, align 8, !tbaa !8
  %58 = call ptr @Gia_ObjFanin1(ptr noundef %57)
  %59 = call i32 @Gia_ObjIsAnd(ptr noundef %58)
  %60 = icmp ne i32 %59, 0
  br i1 %60, label %61, label %67

61:                                               ; preds = %56
  %62 = load ptr, ptr %3, align 8, !tbaa !8
  %63 = call ptr @Gia_ObjFanin1(ptr noundef %62)
  %64 = getelementptr inbounds nuw %struct.Gia_Obj_t_, ptr %63, i32 0, i32 1
  %65 = load i32, ptr %64, align 4, !tbaa !46
  %66 = add i32 %65, 1
  store i32 %66, ptr %64, align 4, !tbaa !46
  br label %67

67:                                               ; preds = %61, %56
  br label %68

68:                                               ; preds = %67, %44
  br label %69

69:                                               ; preds = %68
  %70 = load i32, ptr %4, align 4, !tbaa !26
  %71 = add nsw i32 %70, 1
  store i32 %71, ptr %4, align 4, !tbaa !26
  br label %27, !llvm.loop !50

72:                                               ; preds = %38
  store i32 0, ptr %4, align 4, !tbaa !26
  br label %73

73:                                               ; preds = %137, %72
  %74 = load i32, ptr %4, align 4, !tbaa !26
  %75 = load ptr, ptr %2, align 8, !tbaa !28
  %76 = getelementptr inbounds nuw %struct.Gia_Man_t_, ptr %75, i32 0, i32 4
  %77 = load i32, ptr %76, align 8, !tbaa !45
  %78 = icmp slt i32 %74, %77
  br i1 %78, label %79, label %84

79:                                               ; preds = %73
  %80 = load ptr, ptr %2, align 8, !tbaa !28
  %81 = load i32, ptr %4, align 4, !tbaa !26
  %82 = call ptr @Gia_ManObj(ptr noundef %80, i32 noundef %81)
  store ptr %82, ptr %3, align 8, !tbaa !8
  %83 = icmp ne ptr %82, null
  br label %84

84:                                               ; preds = %79, %73
  %85 = phi i1 [ false, %73 ], [ %83, %79 ]
  br i1 %85, label %86, label %140

86:                                               ; preds = %84
  %87 = load ptr, ptr %3, align 8, !tbaa !8
  %88 = call i32 @Gia_ObjIsAnd(ptr noundef %87)
  %89 = icmp ne i32 %88, 0
  br i1 %89, label %91, label %90

90:                                               ; preds = %86
  br label %136

91:                                               ; preds = %86
  %92 = load ptr, ptr %3, align 8, !tbaa !8
  %93 = getelementptr inbounds nuw %struct.Gia_Obj_t_, ptr %92, i32 0, i32 1
  %94 = load i32, ptr %93, align 4, !tbaa !46
  %95 = icmp ne i32 %94, 0
  br i1 %95, label %96, label %99

96:                                               ; preds = %91
  %97 = load i32, ptr %6, align 4, !tbaa !26
  %98 = add nsw i32 %97, 1
  store i32 %98, ptr %6, align 4, !tbaa !26
  br label %99

99:                                               ; preds = %96, %91
  %100 = load i32, ptr %5, align 4, !tbaa !26
  %101 = load i32, ptr %6, align 4, !tbaa !26
  %102 = icmp slt i32 %100, %101
  br i1 %102, label %103, label %105

103:                                              ; preds = %99
  %104 = load i32, ptr %6, align 4, !tbaa !26
  store i32 %104, ptr %5, align 4, !tbaa !26
  br label %105

105:                                              ; preds = %103, %99
  %106 = load ptr, ptr %3, align 8, !tbaa !8
  %107 = call ptr @Gia_ObjFanin0(ptr noundef %106)
  %108 = call i32 @Gia_ObjIsAnd(ptr noundef %107)
  %109 = icmp ne i32 %108, 0
  br i1 %109, label %110, label %120

110:                                              ; preds = %105
  %111 = load ptr, ptr %3, align 8, !tbaa !8
  %112 = call ptr @Gia_ObjFanin0(ptr noundef %111)
  %113 = getelementptr inbounds nuw %struct.Gia_Obj_t_, ptr %112, i32 0, i32 1
  %114 = load i32, ptr %113, align 4, !tbaa !46
  %115 = add i32 %114, -1
  store i32 %115, ptr %113, align 4, !tbaa !46
  %116 = icmp eq i32 %115, 0
  br i1 %116, label %117, label %120

117:                                              ; preds = %110
  %118 = load i32, ptr %6, align 4, !tbaa !26
  %119 = add nsw i32 %118, -1
  store i32 %119, ptr %6, align 4, !tbaa !26
  br label %120

120:                                              ; preds = %117, %110, %105
  %121 = load ptr, ptr %3, align 8, !tbaa !8
  %122 = call ptr @Gia_ObjFanin1(ptr noundef %121)
  %123 = call i32 @Gia_ObjIsAnd(ptr noundef %122)
  %124 = icmp ne i32 %123, 0
  br i1 %124, label %125, label %135

125:                                              ; preds = %120
  %126 = load ptr, ptr %3, align 8, !tbaa !8
  %127 = call ptr @Gia_ObjFanin1(ptr noundef %126)
  %128 = getelementptr inbounds nuw %struct.Gia_Obj_t_, ptr %127, i32 0, i32 1
  %129 = load i32, ptr %128, align 4, !tbaa !46
  %130 = add i32 %129, -1
  store i32 %130, ptr %128, align 4, !tbaa !46
  %131 = icmp eq i32 %130, 0
  br i1 %131, label %132, label %135

132:                                              ; preds = %125
  %133 = load i32, ptr %6, align 4, !tbaa !26
  %134 = add nsw i32 %133, -1
  store i32 %134, ptr %6, align 4, !tbaa !26
  br label %135

135:                                              ; preds = %132, %125, %120
  br label %136

136:                                              ; preds = %135, %90
  br label %137

137:                                              ; preds = %136
  %138 = load i32, ptr %4, align 4, !tbaa !26
  %139 = add nsw i32 %138, 1
  store i32 %139, ptr %4, align 4, !tbaa !26
  br label %73, !llvm.loop !51

140:                                              ; preds = %84
  %141 = load i32, ptr %6, align 4, !tbaa !26
  %142 = icmp ne i32 %141, 0
  br i1 %142, label %143, label %145

143:                                              ; preds = %140
  %144 = call i32 (ptr, ...) @printf(ptr noundef @.str)
  br label %145

145:                                              ; preds = %143, %140
  store i32 0, ptr %4, align 4, !tbaa !26
  br label %146

146:                                              ; preds = %160, %145
  %147 = load i32, ptr %4, align 4, !tbaa !26
  %148 = load ptr, ptr %2, align 8, !tbaa !28
  %149 = getelementptr inbounds nuw %struct.Gia_Man_t_, ptr %148, i32 0, i32 4
  %150 = load i32, ptr %149, align 8, !tbaa !45
  %151 = icmp slt i32 %147, %150
  br i1 %151, label %152, label %157

152:                                              ; preds = %146
  %153 = load ptr, ptr %2, align 8, !tbaa !28
  %154 = load i32, ptr %4, align 4, !tbaa !26
  %155 = call ptr @Gia_ManObj(ptr noundef %153, i32 noundef %154)
  store ptr %155, ptr %3, align 8, !tbaa !8
  %156 = icmp ne ptr %155, null
  br label %157

157:                                              ; preds = %152, %146
  %158 = phi i1 [ false, %146 ], [ %156, %152 ]
  br i1 %158, label %159, label %163

159:                                              ; preds = %157
  br label %160

160:                                              ; preds = %159
  %161 = load i32, ptr %4, align 4, !tbaa !26
  %162 = add nsw i32 %161, 1
  store i32 %162, ptr %4, align 4, !tbaa !26
  br label %146, !llvm.loop !52

163:                                              ; preds = %157
  %164 = load i32, ptr %5, align 4, !tbaa !26
  %165 = call i32 (ptr, ...) @printf(ptr noundef @.str.1, i32 noundef %164)
  %166 = load i32, ptr %5, align 4, !tbaa !26
  call void @llvm.lifetime.end.p0(i64 4, ptr %6) #14
  call void @llvm.lifetime.end.p0(i64 4, ptr %5) #14
  call void @llvm.lifetime.end.p0(i64 4, ptr %4) #14
  call void @llvm.lifetime.end.p0(i64 8, ptr %3) #14
  ret i32 %166
}