; Function Attrs: nofree nounwind uwtable
define range(i32 0, -2147483648) i32 @Lf_ManComputeCrossCut(ptr noundef readonly captures(none) %0) local_unnamed_addr #2 {
  %2 = getelementptr inbounds nuw i8, ptr %0, i64 24
  %3 = load i32, ptr %2, align 8, !tbaa !41
  %4 = icmp sgt i32 %3, 0
  br i1 %4, label %.lr.ph, label %.critedge6

.lr.ph:                                           ; preds = %1
  %5 = getelementptr i8, ptr %0, i64 32
  %.val74 = load ptr, ptr %5, align 8, !tbaa !22
  %.not = icmp eq ptr %.val74, null
  br i1 %.not, label %.lr.ph99, label %.lr.ph.split.preheader

.lr.ph.split.preheader:                           ; preds = %.lr.ph
  %wide.trip.count = zext nneg i32 %3 to i64
  br label %.lr.ph.split

.lr.ph.split:                                     ; preds = %.lr.ph.split.preheader, %.lr.ph.split
  %indvars.iv = phi i64 [ 0, %.lr.ph.split.preheader ], [ %indvars.iv.next, %.lr.ph.split ]
  %6 = getelementptr inbounds nuw %struct.Gia_Obj_t_, ptr %.val74, i64 %indvars.iv, i32 1
  store i32 0, ptr %6, align 4, !tbaa !42
  %indvars.iv.next = add nuw nsw i64 %indvars.iv, 1
  %exitcond.not = icmp eq i64 %indvars.iv.next, %wide.trip.count
  br i1 %exitcond.not, label %.lr.ph99, label %.lr.ph.split, !llvm.loop !44

.lr.ph99:                                         ; preds = %.lr.ph.split, %.lr.ph
  %7 = getelementptr i8, ptr %0, i64 32
  %.val75 = load ptr, ptr %7, align 8, !tbaa !22
  %.not56 = icmp eq ptr %.val75, null
  br i1 %.not56, label %.lr.ph104, label %.lr.ph99.split.preheader

.lr.ph99.split.preheader:                         ; preds = %.lr.ph99
  %wide.trip.count118 = zext nneg i32 %3 to i64
  br label %.lr.ph99.split

.lr.ph99.split:                                   ; preds = %.lr.ph99.split.preheader, %34
  %indvars.iv115 = phi i64 [ 0, %.lr.ph99.split.preheader ], [ %indvars.iv.next116, %34 ]
  %8 = getelementptr inbounds nuw %struct.Gia_Obj_t_, ptr %.val75, i64 %indvars.iv115
  %.val73 = load i64, ptr %8, align 4
  %9 = and i64 %.val73, 2147483648
  %.not.i = icmp ne i64 %9, 0
  %10 = and i64 %.val73, 536870911
  %11 = icmp eq i64 %10, 536870911
  %narrow.i.not = or i1 %.not.i, %11
  br i1 %narrow.i.not, label %34, label %12

12:                                               ; preds = %.lr.ph99.split
  %13 = sub nsw i64 0, %10
  %14 = getelementptr inbounds %struct.Gia_Obj_t_, ptr %8, i64 %13
  %.val72 = load i64, ptr %14, align 4
  %15 = and i64 %.val72, 2147483648
  %.not.i78 = icmp ne i64 %15, 0
  %16 = and i64 %.val72, 536870911
  %17 = icmp eq i64 %16, 536870911
  %narrow.i79.not = or i1 %.not.i78, %17
  br i1 %narrow.i79.not, label %22, label %18

18:                                               ; preds = %12
  %19 = getelementptr inbounds nuw i8, ptr %14, i64 8
  %20 = load i32, ptr %19, align 4, !tbaa !42
  %21 = add i32 %20, 1
  store i32 %21, ptr %19, align 4, !tbaa !42
  br label %22

22:                                               ; preds = %18, %12
  %23 = lshr i64 %.val73, 32
  %24 = and i64 %23, 536870911
  %25 = sub nsw i64 0, %24
  %26 = getelementptr inbounds %struct.Gia_Obj_t_, ptr %8, i64 %25
  %.val71 = load i64, ptr %26, align 4
  %27 = and i64 %.val71, 2147483648
  %.not.i80 = icmp ne i64 %27, 0
  %28 = and i64 %.val71, 536870911
  %29 = icmp eq i64 %28, 536870911
  %narrow.i81.not = or i1 %.not.i80, %29
  br i1 %narrow.i81.not, label %34, label %30

30:                                               ; preds = %22
  %31 = getelementptr inbounds nuw i8, ptr %26, i64 8
  %32 = load i32, ptr %31, align 4, !tbaa !42
  %33 = add i32 %32, 1
  store i32 %33, ptr %31, align 4, !tbaa !42
  br label %34

34:                                               ; preds = %.lr.ph99.split, %30, %22
  %indvars.iv.next116 = add nuw nsw i64 %indvars.iv115, 1
  %exitcond119.not = icmp eq i64 %indvars.iv.next116, %wide.trip.count118
  br i1 %exitcond119.not, label %.lr.ph104, label %.lr.ph99.split, !llvm.loop !46

.lr.ph104:                                        ; preds = %34, %.lr.ph99
  %35 = getelementptr i8, ptr %0, i64 32
  %.val76 = load ptr, ptr %35, align 8, !tbaa !22
  %.not57 = icmp eq ptr %.val76, null
  br i1 %.not57, label %.critedge6, label %.lr.ph104.split.preheader

.lr.ph104.split.preheader:                        ; preds = %.lr.ph104
  %wide.trip.count123 = zext nneg i32 %3 to i64
  br label %.lr.ph104.split

.lr.ph104.split:                                  ; preds = %.lr.ph104.split.preheader, %69
  %indvars.iv120 = phi i64 [ 0, %.lr.ph104.split.preheader ], [ %indvars.iv.next121, %69 ]
  %.0103 = phi i32 [ 0, %.lr.ph104.split.preheader ], [ %.3, %69 ]
  %.046102 = phi i32 [ 0, %.lr.ph104.split.preheader ], [ %.248, %69 ]
  %36 = getelementptr inbounds nuw %struct.Gia_Obj_t_, ptr %.val76, i64 %indvars.iv120
  %.val70 = load i64, ptr %36, align 4
  %37 = and i64 %.val70, 2147483648
  %.not.i82 = icmp ne i64 %37, 0
  %38 = and i64 %.val70, 536870911
  %39 = icmp eq i64 %38, 536870911
  %narrow.i83.not = or i1 %.not.i82, %39
  br i1 %narrow.i83.not, label %69, label %40

40:                                               ; preds = %.lr.ph104.split
  %41 = getelementptr inbounds nuw i8, ptr %36, i64 8
  %42 = load i32, ptr %41, align 4, !tbaa !42
  %.not61 = icmp ne i32 %42, 0
  %43 = zext i1 %.not61 to i32
  %spec.select = add nsw i32 %.0103, %43
  %.147 = tail call i32 @llvm.smax.i32(i32 %.046102, i32 %spec.select)
  %44 = sub nsw i64 0, %38
  %45 = getelementptr inbounds %struct.Gia_Obj_t_, ptr %36, i64 %44
  %.val69 = load i64, ptr %45, align 4
  %46 = and i64 %.val69, 2147483648
  %.not.i84 = icmp ne i64 %46, 0
  %47 = and i64 %.val69, 536870911
  %48 = icmp eq i64 %47, 536870911
  %narrow.i85.not = or i1 %.not.i84, %48
  br i1 %narrow.i85.not, label %55, label %49

49:                                               ; preds = %40
  %50 = getelementptr inbounds nuw i8, ptr %45, i64 8
  %51 = load i32, ptr %50, align 4, !tbaa !42
  %52 = add i32 %51, -1
  store i32 %52, ptr %50, align 4, !tbaa !42
  %53 = icmp eq i32 %52, 0
  %54 = sext i1 %53 to i32
  %spec.select67 = add nsw i32 %spec.select, %54
  br label %55

55:                                               ; preds = %49, %40
  %.2 = phi i32 [ %spec.select, %40 ], [ %spec.select67, %49 ]
  %56 = lshr i64 %.val70, 32
  %57 = and i64 %56, 536870911
  %58 = sub nsw i64 0, %57
  %59 = getelementptr inbounds %struct.Gia_Obj_t_, ptr %36, i64 %58
  %.val = load i64, ptr %59, align 4
  %60 = and i64 %.val, 2147483648
  %.not.i86 = icmp ne i64 %60, 0
  %61 = and i64 %.val, 536870911
  %62 = icmp eq i64 %61, 536870911
  %narrow.i87.not = or i1 %.not.i86, %62
  br i1 %narrow.i87.not, label %69, label %63

63:                                               ; preds = %55
  %64 = getelementptr inbounds nuw i8, ptr %59, i64 8
  %65 = load i32, ptr %64, align 4, !tbaa !42
  %66 = add i32 %65, -1
  store i32 %66, ptr %64, align 4, !tbaa !42
  %67 = icmp eq i32 %66, 0
  %68 = sext i1 %67 to i32
  %spec.select68 = add nsw i32 %.2, %68
  br label %69

69:                                               ; preds = %63, %.lr.ph104.split, %55
  %.248 = phi i32 [ %.147, %55 ], [ %.046102, %.lr.ph104.split ], [ %.147, %63 ]
  %.3 = phi i32 [ %.2, %55 ], [ %.0103, %.lr.ph104.split ], [ %spec.select68, %63 ]
  %indvars.iv.next121 = add nuw nsw i64 %indvars.iv120, 1
  %exitcond124.not = icmp eq i64 %indvars.iv.next121, %wide.trip.count123
  br i1 %exitcond124.not, label %.critedge4, label %.lr.ph104.split, !llvm.loop !47

.critedge4:                                       ; preds = %69
  %70 = icmp eq i32 %.3, 0
  br i1 %70, label %.critedge6, label %71

71:                                               ; preds = %.critedge4
  %puts = tail call i32 @puts(ptr nonnull dereferenceable(1) @str)
  br label %.critedge6

.critedge6:                                       ; preds = %.critedge4, %71, %.lr.ph104, %1
  %.046.lcssa129132 = phi i32 [ 0, %1 ], [ 0, %.lr.ph104 ], [ %.248, %71 ], [ %.248, %.critedge4 ]
  %72 = tail call i32 (ptr, ...) @printf(ptr noundef nonnull dereferenceable(1) @.str.1, i32 noundef %.046.lcssa129132)
  ret i32 %.046.lcssa129132
}